target datalayout = "e-m:e-p270:32:32-p271:32:32-p272:64:64-i64:64-i128:128-f80:128-n8:16:32:64-S128"
target triple = "x86_64-pc-linux-gnu"

%struct.Aig_Man_t_ = type { ptr, ptr, ptr, ptr, ptr, ptr, ptr, %struct.Aig_Obj_t_, i32, i32, i32, i32, i32, i32, [7 x i32], i32, ptr, i32, ptr, i32, ptr, i32, i32, i32, ptr, i32, i32, i32, i32, i32, ptr, ptr, i32, ptr, ptr, i32, ptr, ptr, i32, i32, i32, ptr, ptr, ptr, ptr, ptr, ptr, ptr, ptr, ptr, ptr, ptr, ptr, ptr, ptr, i32, ptr, ptr, ptr, ptr, i32, i64, i64, i64, ptr, ptr }
%struct.Aig_Obj_t_ = type { %union.anon, ptr, ptr, i64, i32, i32, %union.anon.0 }
%union.anon = type { ptr }
%union.anon.0 = type { ptr }
%struct.Vec_Ptr_t_ = type { i32, i32, ptr }

; Function Attrs: inlinehint nounwind uwtable
define internal ptr @Vec_PtrEntry(ptr noundef %0, i32 noundef %1) #2 {
  %3 = alloca ptr, align 8
  %4 = alloca i32, align 4
  store ptr %0, ptr %3, align 8, !tbaa !33
  store i32 %1, ptr %4, align 4, !tbaa !8
  %5 = load ptr, ptr %3, align 8, !tbaa !33
  %6 = getelementptr inbounds nuw %struct.Vec_Ptr_t_, ptr %5, i32 0, i32 2
  %7 = load ptr, ptr %6, align 8, !tbaa !36
  %8 = load i32, ptr %4, align 4, !tbaa !8
  %9 = sext i32 %8 to i64
  %10 = getelementptr inbounds ptr, ptr %7, i64 %9
  %11 = load ptr, ptr %10, align 8, !tbaa !37
  ret ptr %11
}

; Function Attrs: inlinehint nounwind uwtable
define internal ptr @Aig_ManCi(ptr noundef %0, i32 noundef %1) #2 {
  %3 = alloca ptr, align 8
  %4 = alloca i32, align 4
  store ptr %0, ptr %3, align 8, !tbaa !3
  store i32 %1, ptr %4, align 4, !tbaa !8
  %5 = load ptr, ptr %3, align 8, !tbaa !3
  %6 = getelementptr inbounds nuw %struct.Aig_Man_t_, ptr %5, i32 0, i32 2
  %7 = load ptr, ptr %6, align 8, !tbaa !12
  %8 = load i32, ptr %4, align 4, !tbaa !8
  %9 = call ptr @Vec_PtrEntry(ptr noundef %7, i32 noundef %8)
  ret ptr %9
}

; Function Attrs: inlinehint nounwind uwtable
define internal i32 @Aig_ManCiNum(ptr noundef %0) #2 {
  %2 = alloca ptr, align 8
  store ptr %0, ptr %2, align 8, !tbaa !3
  %3 = load ptr, ptr %2, align 8, !tbaa !3
  %4 = getelementptr inbounds nuw %struct.Aig_Man_t_, ptr %3, i32 0, i32 14
  %5 = getelementptr inbounds [7 x i32], ptr %4, i64 0, i64 2
  %6 = load i32, ptr %5, align 8, !tbaa !8
  ret i32 %6
}

; Function Attrs: inlinehint nounwind uwtable
define internal ptr @Aig_Not(ptr noundef %0) #2 {
  %2 = alloca ptr, align 8
  store ptr %0, ptr %2, align 8, !tbaa !25
  %3 = load ptr, ptr %2, align 8, !tbaa !25
  %4 = ptrtoint ptr %3 to i64
  %5 = xor i64 %4, 1
  %6 = inttoptr i64 %5 to ptr
  ret ptr %6
}

; Function Attrs: nounwind uwtable
define ptr @Aig_Or(ptr noundef %0, ptr noundef %1, ptr noundef %2) #0 {
  %4 = alloca ptr, align 8
  %5 = alloca ptr, align 8
  %6 = alloca ptr, align 8
  store ptr %0, ptr %4, align 8, !tbaa !3
  store ptr %1, ptr %5, align 8, !tbaa !25
  store ptr %2, ptr %6, align 8, !tbaa !25
  %7 = load ptr, ptr %4, align 8, !tbaa !3
  %8 = load ptr, ptr %5, align 8, !tbaa !25
  %9 = call ptr @Aig_Not(ptr noundef %8)
  %10 = load ptr, ptr %6, align 8, !tbaa !25
  %11 = call ptr @Aig_Not(ptr noundef %10)
  %12 = call ptr @Aig_And(ptr noundef %7, ptr noundef %9, ptr noundef %11)
  %13 = call ptr @Aig_Not(ptr noundef %12)
  ret ptr %13
}

; Function Attrs: nounwind uwtable
define ptr @Aig_IthVar(ptr noundef %0, i32 noundef %1) #0 {
  %3 = alloca ptr, align 8
  %4 = alloca i32, align 4
  %5 = alloca i32, align 4
  store ptr %0, ptr %3, align 8, !tbaa !3
  store i32 %1, ptr %4, align 4, !tbaa !8
  call void @llvm.lifetime.start.p0(i64 4, ptr %5) #7
  %6 = load ptr, ptr %3, align 8, !tbaa !3
  %7 = call i32 @Aig_ManCiNum(ptr noundef %6)
  store i32 %7, ptr %5, align 4, !tbaa !8
  br label %8

8:                                                ; preds = %15, %2
  %9 = load i32, ptr %5, align 4, !tbaa !8
  %10 = load i32, ptr %4, align 4, !tbaa !8
  %11 = icmp sle i32 %9, %10
  br i1 %11, label %12, label %18

12:                                               ; preds = %8
  %13 = load ptr, ptr %3, align 8, !tbaa !3
  %14 = call ptr @Aig_ObjCreateCi(ptr noundef %13)
  br label %15

15:                                               ; preds = %12
  %16 = load i32, ptr %5, align 4, !tbaa !8
  %17 = add nsw i32 %16, 1
  store i32 %17, ptr %5, align 4, !tbaa !8
  br label %8, !llvm.loop !10

18:                                               ; preds = %8
  %19 = load ptr, ptr %3, align 8, !tbaa !3
  %20 = load i32, ptr %4, align 4, !tbaa !8
  %21 = call ptr @Aig_ManCi(ptr noundef %19, i32 noundef %20)
  call void @llvm.lifetime.end.p0(i64 4, ptr %5) #7
  ret ptr %21
}

; Function Attrs: inlinehint nounwind uwtable
define internal ptr @Aig_ManConst0(ptr noundef %0) #2 {
  %2 = alloca ptr, align 8
  store ptr %0, ptr %2, align 8, !tbaa !3
  %3 = load ptr, ptr %2, align 8, !tbaa !3
  %4 = getelementptr inbounds nuw %struct.Aig_Man_t_, ptr %3, i32 0, i32 6
  %5 = load ptr, ptr %4, align 8, !tbaa !26
  %6 = call ptr @Aig_Not(ptr noundef %5)
  ret ptr %6
}

; Function Attrs: nounwind uwtable
define ptr @Aig_CreateOr(ptr noundef %0, i32 noundef %1) #0 {
  %3 = alloca ptr, align 8
  %4 = alloca i32, align 4
  %5 = alloca ptr, align 8
  %6 = alloca i32, align 4
  store ptr %0, ptr %3, align 8, !tbaa !3
  store i32 %1, ptr %4, align 4, !tbaa !8
  call void @llvm.lifetime.start.p0(i64 8, ptr %5) #7
  call void @llvm.lifetime.start.p0(i64 4, ptr %6) #7
  %7 = load ptr, ptr %3, align 8, !tbaa !3
  %8 = call ptr @Aig_ManConst0(ptr noundef %7)
  store ptr %8, ptr %5, align 8, !tbaa !25
  store i32 0, ptr %6, align 4, !tbaa !8
  br label %9

9:                                                ; preds = %20, %2
  %10 = load i32, ptr %6, align 4, !tbaa !8
  %11 = load i32, ptr %4, align 4, !tbaa !8
  %12 = icmp slt i32 %10, %11
  br i1 %12, label %13, label %23

13:                                               ; preds = %9
  %14 = load ptr, ptr %3, align 8, !tbaa !3
  %15 = load ptr, ptr %5, align 8, !tbaa !25
  %16 = load ptr, ptr %3, align 8, !tbaa !3
  %17 = load i32, ptr %6, align 4, !tbaa !8
  %18 = call ptr @Aig_IthVar(ptr noundef %16, i32 noundef %17)
  %19 = call ptr @Aig_Or(ptr noundef %14, ptr noundef %15, ptr noundef %18)
  store ptr %19, ptr %5, align 8, !tbaa !25
  br label %20

20:                                               ; preds = %13
  %21 = load i32, ptr %6, align 4, !tbaa !8
  %22 = add nsw i32 %21, 1
  store i32 %22, ptr %6, align 4, !tbaa !8
  br label %9, !llvm.loop !41

23:                                               ; preds = %9
  %24 = load ptr, ptr %5, align 8, !tbaa !25
  call void @llvm.lifetime.end.p0(i64 4, ptr %6) #7
  call void @llvm.lifetime.end.p0(i64 8, ptr %5) #7
  ret ptr %24
}